target datalayout = "e-m:e-p270:32:32-p271:32:32-p272:64:64-i64:64-i128:128-f80:128-n8:16:32:64-S128"
target triple = "x86_64-pc-linux-gnu"

%class.Scheduler = type { [200 x %"struct.Scheduler::handType"], [200 x %"struct.Scheduler::groupType"], i32, i32, %"struct.std::atomic", [6 x [200 x %"struct.Scheduler::listType"]], [200 x %"struct.Scheduler::sortType"], i32, %"class.std::vector", %"class.std::vector", %"class.std::vector", i32, i32, %"class.std::vector", %"class.std::vector.0", %class.Timer }
%"struct.Scheduler::handType" = type { i32, i32, [4 x [4 x i32]], i32, i32, i32, i32, i32, i32, i32, i32, i32, i32 }
%"struct.Scheduler::groupType" = type { i32, i32, i32, i32, i32, i32 }
%"struct.std::atomic" = type { %"struct.std::__atomic_base" }
%"struct.std::__atomic_base" = type { i32 }
%"struct.Scheduler::listType" = type { i32, i32, i32 }
%"struct.Scheduler::sortType" = type { i32, i32 }
%"class.std::vector" = type { %"struct.std::_Vector_base" }
%"struct.std::_Vector_base" = type { %"struct.std::_Vector_base<int, std::allocator<int>>::_Vector_impl" }
%"struct.std::_Vector_base<int, std::allocator<int>>::_Vector_impl" = type { %"struct.std::_Vector_base<int, std::allocator<int>>::_Vector_impl_data" }
%"struct.std::_Vector_base<int, std::allocator<int>>::_Vector_impl_data" = type { ptr, ptr, ptr }
%"class.std::vector.0" = type { %"struct.std::_Vector_base.1" }
%"struct.std::_Vector_base.1" = type { %"struct.std::_Vector_base<Timer, std::allocator<Timer>>::_Vector_impl" }
%"struct.std::_Vector_base<Timer, std::allocator<Timer>>::_Vector_impl" = type { %"struct.std::_Vector_base<Timer, std::allocator<Timer>>::_Vector_impl_data" }
%"struct.std::_Vector_base<Timer, std::allocator<Timer>>::_Vector_impl_data" = type { ptr, ptr, ptr }
%class.Timer = type { %"class.std::__cxx11::basic_string", i32, i64, i64, %"class.std::chrono::time_point", i64 }
%"class.std::__cxx11::basic_string" = type { %"struct.std::__cxx11::basic_string<char>::_Alloc_hider", i64, %union.anon }
%"struct.std::__cxx11::basic_string<char>::_Alloc_hider" = type { ptr }
%union.anon = type { i64, [8 x i8] }
%"class.std::chrono::time_point" = type { %"class.std::chrono::duration" }
%"class.std::chrono::duration" = type { i64 }
%struct.deal = type { i32, i32, [3 x i32], [3 x i32], [4 x [4 x i32]] }

; Function Attrs: mustprogress nounwind uwtable
define linkonce_odr noundef nonnull align 4 dereferenceable(4) ptr @_ZNKSt6vectorIiSaIiEEixEm(ptr noundef nonnull align 8 dereferenceable(24) %0, i64 noundef %1) #5 comdat align 2 {
  %3 = alloca ptr, align 8
  %4 = alloca i64, align 8
  store ptr %0, ptr %3, align 8
  store i64 %1, ptr %4, align 8
  %5 = load ptr, ptr %3, align 8
  %6 = getelementptr inbounds nuw %"struct.std::_Vector_base", ptr %5, i32 0, i32 0
  %7 = getelementptr inbounds nuw %"struct.std::_Vector_base<int, std::allocator<int>>::_Vector_impl_data", ptr %6, i32 0, i32 0
  %8 = load ptr, ptr %7, align 8
  %9 = load i64, ptr %4, align 8
  %10 = getelementptr inbounds i32, ptr %8, i64 %9
  ret ptr %10
}

; Function Attrs: mustprogress nounwind uwtable
define noundef i32 @_ZNK9Scheduler8StrengthERK4deal(ptr noundef nonnull align 8 dereferenceable(43416) %0, ptr noundef nonnull align 4 dereferenceable(96) %1) #5 align 2 {
  %3 = alloca ptr, align 8
  %4 = alloca ptr, align 8
  %5 = alloca i32, align 4
  %6 = alloca i32, align 4
  %7 = alloca i32, align 4
  %8 = alloca i32, align 4
  %9 = alloca i32, align 4
  %10 = alloca i32, align 4
  %11 = alloca i32, align 4
  %12 = alloca i32, align 4
  %13 = alloca i32, align 4
  store ptr %0, ptr %3, align 8
  store ptr %1, ptr %4, align 8
  %14 = load ptr, ptr %3, align 8
  %15 = load ptr, ptr %4, align 8
  %16 = getelementptr inbounds nuw %struct.deal, ptr %15, i32 0, i32 4
  %17 = getelementptr inbounds [4 x [4 x i32]], ptr %16, i64 0, i64 0
  %18 = getelementptr inbounds [4 x i32], ptr %17, i64 0, i64 0
  %19 = load i32, ptr %18, align 4
  %20 = load ptr, ptr %4, align 8
  %21 = getelementptr inbounds nuw %struct.deal, ptr %20, i32 0, i32 4
  %22 = getelementptr inbounds [4 x [4 x i32]], ptr %21, i64 0, i64 2
  %23 = getelementptr inbounds [4 x i32], ptr %22, i64 0, i64 0
  %24 = load i32, ptr %23, align 4
  %25 = or i32 %19, %24
  %26 = lshr i32 %25, 2
  store i32 %26, ptr %5, align 4
  %27 = load ptr, ptr %4, align 8
  %28 = getelementptr inbounds nuw %struct.deal, ptr %27, i32 0, i32 4
  %29 = getelementptr inbounds [4 x [4 x i32]], ptr %28, i64 0, i64 0
  %30 = getelementptr inbounds [4 x i32], ptr %29, i64 0, i64 1
  %31 = load i32, ptr %30, align 4
  %32 = load ptr, ptr %4, align 8
  %33 = getelementptr inbounds nuw %struct.deal, ptr %32, i32 0, i32 4
  %34 = getelementptr inbounds [4 x [4 x i32]], ptr %33, i64 0, i64 2
  %35 = getelementptr inbounds [4 x i32], ptr %34, i64 0, i64 1
  %36 = load i32, ptr %35, align 4
  %37 = or i32 %31, %36
  %38 = lshr i32 %37, 2
  store i32 %38, ptr %6, align 4
  %39 = load ptr, ptr %4, align 8
  %40 = getelementptr inbounds nuw %struct.deal, ptr %39, i32 0, i32 4
  %41 = getelementptr inbounds [4 x [4 x i32]], ptr %40, i64 0, i64 0
  %42 = getelementptr inbounds [4 x i32], ptr %41, i64 0, i64 2
  %43 = load i32, ptr %42, align 4
  %44 = load ptr, ptr %4, align 8
  %45 = getelementptr inbounds nuw %struct.deal, ptr %44, i32 0, i32 4
  %46 = getelementptr inbounds [4 x [4 x i32]], ptr %45, i64 0, i64 2
  %47 = getelementptr inbounds [4 x i32], ptr %46, i64 0, i64 2
  %48 = load i32, ptr %47, align 4
  %49 = or i32 %43, %48
  %50 = lshr i32 %49, 2
  store i32 %50, ptr %7, align 4
  %51 = load ptr, ptr %4, align 8
  %52 = getelementptr inbounds nuw %struct.deal, ptr %51, i32 0, i32 4
  %53 = getelementptr inbounds [4 x [4 x i32]], ptr %52, i64 0, i64 0
  %54 = getelementptr inbounds [4 x i32], ptr %53, i64 0, i64 3
  %55 = load i32, ptr %54, align 4
  %56 = load ptr, ptr %4, align 8
  %57 = getelementptr inbounds nuw %struct.deal, ptr %56, i32 0, i32 4
  %58 = getelementptr inbounds [4 x [4 x i32]], ptr %57, i64 0, i64 2
  %59 = getelementptr inbounds [4 x i32], ptr %58, i64 0, i64 3
  %60 = load i32, ptr %59, align 4
  %61 = or i32 %55, %60
  %62 = lshr i32 %61, 2
  store i32 %62, ptr %8, align 4
  %63 = getelementptr inbounds nuw %class.Scheduler, ptr %14, i32 0, i32 13
  %64 = load i32, ptr %5, align 4
  %65 = zext i32 %64 to i64
  %66 = call noundef nonnull align 4 dereferenceable(4) ptr @_ZNKSt6vectorIiSaIiEEixEm(ptr noundef nonnull align 8 dereferenceable(24) %63, i64 noundef %65) #3
  %67 = load i32, ptr %66, align 4
  store i32 %67, ptr %9, align 4
  %68 = getelementptr inbounds nuw %class.Scheduler, ptr %14, i32 0, i32 13
  %69 = load i32, ptr %6, align 4
  %70 = zext i32 %69 to i64
  %71 = call noundef nonnull align 4 dereferenceable(4) ptr @_ZNKSt6vectorIiSaIiEEixEm(ptr noundef nonnull align 8 dereferenceable(24) %68, i64 noundef %70) #3
  %72 = load i32, ptr %71, align 4
  store i32 %72, ptr %10, align 4
  %73 = getelementptr inbounds nuw %class.Scheduler, ptr %14, i32 0, i32 13
  %74 = load i32, ptr %7, align 4
  %75 = zext i32 %74 to i64
  %76 = call noundef nonnull align 4 dereferenceable(4) ptr @_ZNKSt6vectorIiSaIiEEixEm(ptr noundef nonnull align 8 dereferenceable(24) %73, i64 noundef %75) #3
  %77 = load i32, ptr %76, align 4
  store i32 %77, ptr %11, align 4
  %78 = getelementptr inbounds nuw %class.Scheduler, ptr %14, i32 0, i32 13
  %79 = load i32, ptr %8, align 4
  %80 = zext i32 %79 to i64
  %81 = call noundef nonnull align 4 dereferenceable(4) ptr @_ZNKSt6vectorIiSaIiEEixEm(ptr noundef nonnull align 8 dereferenceable(24) %78, i64 noundef %80) #3
  %82 = load i32, ptr %81, align 4
  store i32 %82, ptr %12, align 4
  %83 = load i32, ptr %9, align 4
  %84 = icmp sge i32 %83, 14
  br i1 %84, label %85, label %88

85:                                               ; preds = %2
  %86 = load i32, ptr %9, align 4
  %87 = sub nsw i32 %86, 14
  br label %91

88:                                               ; preds = %2
  %89 = load i32, ptr %9, align 4
  %90 = sub nsw i32 14, %89
  br label %91

91:                                               ; preds = %88, %85
  %92 = phi i32 [ %87, %85 ], [ %90, %88 ]
  %93 = load i32, ptr %10, align 4
  %94 = icmp sge i32 %93, 14
  br i1 %94, label %95, label %98

95:                                               ; preds = %91
  %96 = load i32, ptr %10, align 4
  %97 = sub nsw i32 %96, 14
  br label %101

98:                                               ; preds = %91
  %99 = load i32, ptr %10, align 4
  %100 = sub nsw i32 14, %99
  br label %101

101:                                              ; preds = %98, %95
  %102 = phi i32 [ %97, %95 ], [ %100, %98 ]
  %103 = add nsw i32 %92, %102
  %104 = load i32, ptr %11, align 4
  %105 = icmp sge i32 %104, 14
  br i1 %105, label %106, label %109

106:                                              ; preds = %101
  %107 = load i32, ptr %11, align 4
  %108 = sub nsw i32 %107, 14
  br label %112

109:                                              ; preds = %101
  %110 = load i32, ptr %11, align 4
  %111 = sub nsw i32 14, %110
  br label %112

112:                                              ; preds = %109, %106
  %113 = phi i32 [ %108, %106 ], [ %111, %109 ]
  %114 = add nsw i32 %103, %113
  %115 = load i32, ptr %12, align 4
  %116 = icmp sge i32 %115, 14
  br i1 %116, label %117, label %120

117:                                              ; preds = %112
  %118 = load i32, ptr %12, align 4
  %119 = sub nsw i32 %118, 14
  br label %123

120:                                              ; preds = %112
  %121 = load i32, ptr %12, align 4
  %122 = sub nsw i32 14, %121
  br label %123

123:                                              ; preds = %120, %117
  %124 = phi i32 [ %119, %117 ], [ %122, %120 ]
  %125 = add nsw i32 %114, %124
  store i32 %125, ptr %13, align 4
  %126 = load i32, ptr %13, align 4
  %127 = icmp sge i32 %126, 50
  br i1 %127, label %128, label %129

128:                                              ; preds = %123
  store i32 49, ptr %13, align 4
  br label %129

129:                                              ; preds = %128, %123
  %130 = load i32, ptr %13, align 4
  ret i32 %130
}