; Function Attrs: mustprogress nofree norecurse nosync nounwind willreturn memory(read, inaccessiblemem: none) uwtable
define noundef range(i32 -2147483648, 50) i32 @_ZNK9Scheduler8StrengthERK4deal(ptr nocapture noundef nonnull readonly align 8 dereferenceable(43416) %0, ptr nocapture noundef nonnull readonly align 4 dereferenceable(96) %1) local_unnamed_addr #9 align 2 {
  %3 = getelementptr inbounds nuw i8, ptr %1, i64 32
  %4 = load i32, ptr %3, align 4
  %5 = getelementptr inbounds i8, ptr %1, i64 64
  %6 = load i32, ptr %5, align 4
  %7 = or i32 %6, %4
  %8 = lshr i32 %7, 2
  %9 = getelementptr inbounds i8, ptr %1, i64 36
  %10 = load i32, ptr %9, align 4
  %11 = getelementptr inbounds i8, ptr %1, i64 68
  %12 = load i32, ptr %11, align 4
  %13 = or i32 %12, %10
  %14 = lshr i32 %13, 2
  %15 = getelementptr inbounds i8, ptr %1, i64 40
  %16 = load i32, ptr %15, align 4
  %17 = getelementptr inbounds i8, ptr %1, i64 72
  %18 = load i32, ptr %17, align 4
  %19 = or i32 %18, %16
  %20 = lshr i32 %19, 2
  %21 = getelementptr inbounds i8, ptr %1, i64 44
  %22 = load i32, ptr %21, align 4
  %23 = getelementptr inbounds i8, ptr %1, i64 76
  %24 = load i32, ptr %23, align 4
  %25 = or i32 %24, %22
  %26 = lshr i32 %25, 2
  %27 = getelementptr inbounds nuw i8, ptr %0, i64 43296
  %28 = zext nneg i32 %8 to i64
  %29 = load ptr, ptr %27, align 8
  %30 = getelementptr inbounds i32, ptr %29, i64 %28
  %31 = load i32, ptr %30, align 4
  %32 = zext nneg i32 %14 to i64
  %33 = getelementptr inbounds i32, ptr %29, i64 %32
  %34 = load i32, ptr %33, align 4
  %35 = zext nneg i32 %20 to i64
  %36 = getelementptr inbounds i32, ptr %29, i64 %35
  %37 = load i32, ptr %36, align 4
  %38 = zext nneg i32 %26 to i64
  %39 = getelementptr inbounds i32, ptr %29, i64 %38
  %40 = load i32, ptr %39, align 4
  %41 = icmp sgt i32 %31, 13
  %42 = add nsw i32 %31, -14
  %43 = sub nsw i32 14, %31
  %44 = select i1 %41, i32 %42, i32 %43
  %45 = icmp sgt i32 %34, 13
  %46 = add nsw i32 %34, -14
  %47 = sub nsw i32 14, %34
  %48 = select i1 %45, i32 %46, i32 %47
  %49 = add nsw i32 %48, %44
  %50 = icmp sgt i32 %37, 13
  %51 = add nsw i32 %37, -14
  %52 = sub nsw i32 14, %37
  %53 = select i1 %50, i32 %51, i32 %52
  %54 = add nsw i32 %49, %53
  %55 = icmp sgt i32 %40, 13
  %56 = add nsw i32 %40, -14
  %57 = sub nsw i32 14, %40
  %58 = select i1 %55, i32 %56, i32 %57
  %59 = add nsw i32 %54, %58
  %spec.store.select = tail call i32 @llvm.smin.i32(i32 %59, i32 49)
  ret i32 %spec.store.select
}